target datalayout = "e-m:e-p270:32:32-p271:32:32-p272:64:64-i64:64-i128:128-f80:128-n8:16:32:64-S128"
target triple = "x86_64-pc-linux-gnu"

@.str.1 = private unnamed_addr constant [5 x i8] c"fips\00", align 1

; Function Attrs: nounwind uwtable
define internal i32 @evp_default_property_is_enabled(ptr noundef %0, ptr noundef %1) #0 {
  %3 = alloca ptr, align 8
  %4 = alloca ptr, align 8
  %5 = alloca ptr, align 8
  store ptr %0, ptr %3, align 8, !tbaa !3
  store ptr %1, ptr %4, align 8, !tbaa !10
  call void @llvm.lifetime.start.p0(i64 8, ptr %5) #6
  %6 = load ptr, ptr %3, align 8, !tbaa !3
  %7 = call ptr @ossl_ctx_global_properties(ptr noundef %6, i32 noundef 1)
  store ptr %7, ptr %5, align 8, !tbaa !33
  %8 = load ptr, ptr %5, align 8, !tbaa !33
  %9 = icmp ne ptr %8, null
  br i1 %9, label %10, label %17

10:                                               ; preds = %2
  %11 = load ptr, ptr %3, align 8, !tbaa !3
  %12 = load ptr, ptr %4, align 8, !tbaa !10
  %13 = load ptr, ptr %5, align 8, !tbaa !33
  %14 = load ptr, ptr %13, align 8, !tbaa !31
  %15 = call i32 @ossl_property_is_enabled(ptr noundef %11, ptr noundef %12, ptr noundef %14)
  %16 = icmp ne i32 %15, 0
  br label %17

17:                                               ; preds = %10, %2
  %18 = phi i1 [ false, %2 ], [ %16, %10 ]
  %19 = zext i1 %18 to i32
  call void @llvm.lifetime.end.p0(i64 8, ptr %5) #6
  ret i32 %19
}

; Function Attrs: nounwind uwtable
define i32 @EVP_default_properties_is_fips_enabled(ptr noundef %0) #0 {
  %2 = alloca ptr, align 8
  store ptr %0, ptr %2, align 8, !tbaa !3
  %3 = load ptr, ptr %2, align 8, !tbaa !3
  %4 = call i32 @evp_default_property_is_enabled(ptr noundef %3, ptr noundef @.str.1)
  ret i32 %4
}