; Function Attrs: nounwind uwtable
define range(i32 0, 2) i32 @EVP_default_properties_is_fips_enabled(ptr noundef %0) local_unnamed_addr #0 {
  %2 = tail call ptr @ossl_ctx_global_properties(ptr noundef %0, i32 noundef 1) #5
  %.not.i = icmp eq ptr %2, null
  br i1 %.not.i, label %evp_default_property_is_enabled.exit, label %3

3:                                                ; preds = %1
  %4 = load ptr, ptr %2, align 8, !tbaa !24
  %5 = tail call i32 @ossl_property_is_enabled(ptr noundef %0, ptr noundef nonnull @.str.1, ptr noundef %4) #5
  %6 = icmp ne i32 %5, 0
  %7 = zext i1 %6 to i32
  br label %evp_default_property_is_enabled.exit

evp_default_property_is_enabled.exit:             ; preds = %1, %3
  %8 = phi i32 [ 0, %1 ], [ %7, %3 ]
  ret i32 %8
}